; ModuleID = 'source-C-CXX/20/1229.cpp'
source_filename = "source-C-CXX/20/1229.cpp"
target datalayout = "e-m:e-p270:32:32-p271:32:32-p272:64:64-i64:64-f80:128-n8:16:32:64-S128"
target triple = "x86_64-pc-linux-gnu"

%"class.std::ios_base::Init" = type { i8 }
%"class.std::basic_istream" = type { i32 (...)**, i64, %"class.std::basic_ios" }
%"class.std::basic_ios" = type { %"class.std::ios_base", %"class.std::basic_ostream"*, i8, i8, %"class.std::basic_streambuf"*, %"class.std::ctype"*, %"class.std::num_put"*, %"class.std::num_get"* }
%"class.std::ios_base" = type { i32 (...)**, i64, i64, i32, i32, i32, %"struct.std::ios_base::_Callback_list"*, %"struct.std::ios_base::_Words", [8 x %"struct.std::ios_base::_Words"], i32, %"struct.std::ios_base::_Words"*, %"class.std::locale" }
%"struct.std::ios_base::_Callback_list" = type { %"struct.std::ios_base::_Callback_list"*, void (i32, %"class.std::ios_base"*, i32)*, i32, i32 }
%"struct.std::ios_base::_Words" = type { i8*, i64 }
%"class.std::locale" = type { %"class.std::locale::_Impl"* }
%"class.std::locale::_Impl" = type { i32, %"class.std::locale::facet"**, i64, %"class.std::locale::facet"**, i8** }
%"class.std::locale::facet" = type <{ i32 (...)**, i32, [4 x i8] }>
%"class.std::basic_ostream" = type { i32 (...)**, %"class.std::basic_ios" }
%"class.std::basic_streambuf" = type { i32 (...)**, i8*, i8*, i8*, i8*, i8*, i8*, %"class.std::locale" }
%"class.std::ctype" = type <{ %"class.std::locale::facet.base", [4 x i8], %struct.__locale_struct*, i8, [7 x i8], i32*, i32*, i16*, i8, [256 x i8], [256 x i8], i8, [6 x i8] }>
%"class.std::locale::facet.base" = type <{ i32 (...)**, i32 }>
%struct.__locale_struct = type { [13 x %struct.__locale_data*], i16*, i32*, i32*, [13 x i8*] }
%struct.__locale_data = type opaque
%"class.std::num_put" = type { %"class.std::locale::facet.base", [4 x i8] }
%"class.std::num_get" = type { %"class.std::locale::facet.base", [4 x i8] }

@_ZStL8__ioinit = internal global %"class.std::ios_base::Init" zeroinitializer, align 1
@__dso_handle = external hidden global i8
@_ZSt3cin = external global %"class.std::basic_istream", align 8
@_ZSt4cout = external global %"class.std::basic_ostream", align 8
@.str = private unnamed_addr constant [2 x i8] c",\00", align 1
@llvm.global_ctors = appending global [1 x { i32, void ()*, i8* }] [{ i32, void ()*, i8* } { i32 65535, void ()* @_GLOBAL__sub_I_1229.cpp, i8* null }]

declare void @_ZNSt8ios_base4InitC1Ev(%"class.std::ios_base::Init"* nonnull align 1 dereferenceable(1)) unnamed_addr #0

; Function Attrs: nounwind
declare void @_ZNSt8ios_base4InitD1Ev(%"class.std::ios_base::Init"* nonnull align 1 dereferenceable(1)) unnamed_addr #1

; Function Attrs: nofree nounwind
declare i32 @__cxa_atexit(void (i8*)*, i8*, i8*) local_unnamed_addr #2

; Function Attrs: mustprogress norecurse sspstrong uwtable
define dso_local i32 @main() local_unnamed_addr #3 {
  %1 = alloca i32, align 4
  %2 = alloca float, align 4
  %3 = bitcast i32* %1 to i8*
  call void @llvm.lifetime.start.p0i8(i64 4, i8* nonnull %3) #7
  %4 = bitcast float* %2 to i8*
  call void @llvm.lifetime.start.p0i8(i64 4, i8* nonnull %4) #7
  %5 = call nonnull align 8 dereferenceable(16) %"class.std::basic_istream"* @_ZNSirsERi(%"class.std::basic_istream"* nonnull align 8 dereferenceable(16) @_ZSt3cin, i32* nonnull align 4 dereferenceable(4) %1)
  %6 = load i32, i32* %1, align 4, !tbaa !5
  %7 = icmp sgt i32 %6, 0
  br i1 %7, label %18, label %8

8:                                                ; preds = %18, %0
  %9 = phi float [ 1.000000e+06, %0 ], [ %29, %18 ]
  %10 = phi float [ 0.000000e+00, %0 ], [ %25, %18 ]
  %11 = phi float [ 0.000000e+00, %0 ], [ %27, %18 ]
  %12 = phi i32 [ %6, %0 ], [ %31, %18 ]
  %13 = sitofp i32 %12 to float
  %14 = fdiv float %10, %13
  %15 = fmul float %14, 2.000000e+00
  %16 = fadd float %9, %11
  %17 = fcmp olt float %15, %16
  br i1 %17, label %33, label %64

18:                                               ; preds = %0, %18
  %19 = phi i32 [ %30, %18 ], [ 0, %0 ]
  %20 = phi float [ %27, %18 ], [ 0.000000e+00, %0 ]
  %21 = phi float [ %25, %18 ], [ 0.000000e+00, %0 ]
  %22 = phi float [ %29, %18 ], [ 1.000000e+06, %0 ]
  %23 = call nonnull align 8 dereferenceable(16) %"class.std::basic_istream"* @_ZNSi10_M_extractIfEERSiRT_(%"class.std::basic_istream"* nonnull align 8 dereferenceable(16) @_ZSt3cin, float* nonnull align 4 dereferenceable(4) %2)
  %24 = load float, float* %2, align 4, !tbaa !9
  %25 = fadd float %21, %24
  %26 = fcmp olt float %20, %24
  %27 = select i1 %26, float %24, float %20
  %28 = fcmp ogt float %22, %24
  %29 = select i1 %28, float %24, float %22
  %30 = add nuw nsw i32 %19, 1
  %31 = load i32, i32* %1, align 4, !tbaa !5
  %32 = icmp slt i32 %30, %31
  br i1 %32, label %18, label %8, !llvm.loop !11

33:                                               ; preds = %8
  %34 = fpext float %11 to double
  %35 = call nonnull align 8 dereferenceable(8) %"class.std::basic_ostream"* @_ZNSo9_M_insertIdEERSoT_(%"class.std::basic_ostream"* nonnull align 8 dereferenceable(8) @_ZSt4cout, double %34)
  %36 = bitcast %"class.std::basic_ostream"* %35 to i8**
  %37 = load i8*, i8** %36, align 8, !tbaa !13
  %38 = getelementptr i8, i8* %37, i64 -24
  %39 = bitcast i8* %38 to i64*
  %40 = load i64, i64* %39, align 8
  %41 = bitcast %"class.std::basic_ostream"* %35 to i8*
  %42 = add nsw i64 %40, 240
  %43 = getelementptr inbounds i8, i8* %41, i64 %42
  %44 = bitcast i8* %43 to %"class.std::ctype"**
  %45 = load %"class.std::ctype"*, %"class.std::ctype"** %44, align 8, !tbaa !15
  %46 = icmp eq %"class.std::ctype"* %45, null
  br i1 %46, label %47, label %48

47:                                               ; preds = %33
  call void @_ZSt16__throw_bad_castv() #8
  unreachable

48:                                               ; preds = %33
  %49 = getelementptr inbounds %"class.std::ctype", %"class.std::ctype"* %45, i64 0, i32 8
  %50 = load i8, i8* %49, align 8, !tbaa !19
  %51 = icmp eq i8 %50, 0
  br i1 %51, label %55, label %52

52:                                               ; preds = %48
  %53 = getelementptr inbounds %"class.std::ctype", %"class.std::ctype"* %45, i64 0, i32 9, i64 10
  %54 = load i8, i8* %53, align 1, !tbaa !21
  br label %61

55:                                               ; preds = %48
  call void @_ZNKSt5ctypeIcE13_M_widen_initEv(%"class.std::ctype"* nonnull align 8 dereferenceable(570) %45)
  %56 = bitcast %"class.std::ctype"* %45 to i8 (%"class.std::ctype"*, i8)***
  %57 = load i8 (%"class.std::ctype"*, i8)**, i8 (%"class.std::ctype"*, i8)*** %56, align 8, !tbaa !13
  %58 = getelementptr inbounds i8 (%"class.std::ctype"*, i8)*, i8 (%"class.std::ctype"*, i8)** %57, i64 6
  %59 = load i8 (%"class.std::ctype"*, i8)*, i8 (%"class.std::ctype"*, i8)** %58, align 8
  %60 = call signext i8 %59(%"class.std::ctype"* nonnull align 8 dereferenceable(570) %45, i8 signext 10)
  br label %61

61:                                               ; preds = %52, %55
  %62 = phi i8 [ %54, %52 ], [ %60, %55 ]
  %63 = call nonnull align 8 dereferenceable(8) %"class.std::basic_ostream"* @_ZNSo3putEc(%"class.std::basic_ostream"* nonnull align 8 dereferenceable(8) %35, i8 signext %62)
  br label %129

64:                                               ; preds = %8
  %65 = fcmp ogt float %15, %16
  %66 = fpext float %9 to double
  %67 = call nonnull align 8 dereferenceable(8) %"class.std::basic_ostream"* @_ZNSo9_M_insertIdEERSoT_(%"class.std::basic_ostream"* nonnull align 8 dereferenceable(8) @_ZSt4cout, double %66)
  br i1 %65, label %68, label %97

68:                                               ; preds = %64
  %69 = bitcast %"class.std::basic_ostream"* %67 to i8**
  %70 = load i8*, i8** %69, align 8, !tbaa !13
  %71 = getelementptr i8, i8* %70, i64 -24
  %72 = bitcast i8* %71 to i64*
  %73 = load i64, i64* %72, align 8
  %74 = bitcast %"class.std::basic_ostream"* %67 to i8*
  %75 = add nsw i64 %73, 240
  %76 = getelementptr inbounds i8, i8* %74, i64 %75
  %77 = bitcast i8* %76 to %"class.std::ctype"**
  %78 = load %"class.std::ctype"*, %"class.std::ctype"** %77, align 8, !tbaa !15
  %79 = icmp eq %"class.std::ctype"* %78, null
  br i1 %79, label %80, label %81

80:                                               ; preds = %68
  call void @_ZSt16__throw_bad_castv() #8
  unreachable

81:                                               ; preds = %68
  %82 = getelementptr inbounds %"class.std::ctype", %"class.std::ctype"* %78, i64 0, i32 8
  %83 = load i8, i8* %82, align 8, !tbaa !19
  %84 = icmp eq i8 %83, 0
  br i1 %84, label %88, label %85

85:                                               ; preds = %81
  %86 = getelementptr inbounds %"class.std::ctype", %"class.std::ctype"* %78, i64 0, i32 9, i64 10
  %87 = load i8, i8* %86, align 1, !tbaa !21
  br label %94

88:                                               ; preds = %81
  call void @_ZNKSt5ctypeIcE13_M_widen_initEv(%"class.std::ctype"* nonnull align 8 dereferenceable(570) %78)
  %89 = bitcast %"class.std::ctype"* %78 to i8 (%"class.std::ctype"*, i8)***
  %90 = load i8 (%"class.std::ctype"*, i8)**, i8 (%"class.std::ctype"*, i8)*** %89, align 8, !tbaa !13
  %91 = getelementptr inbounds i8 (%"class.std::ctype"*, i8)*, i8 (%"class.std::ctype"*, i8)** %90, i64 6
  %92 = load i8 (%"class.std::ctype"*, i8)*, i8 (%"class.std::ctype"*, i8)** %91, align 8
  %93 = call signext i8 %92(%"class.std::ctype"* nonnull align 8 dereferenceable(570) %78, i8 signext 10)
  br label %94

94:                                               ; preds = %85, %88
  %95 = phi i8 [ %87, %85 ], [ %93, %88 ]
  %96 = call nonnull align 8 dereferenceable(8) %"class.std::basic_ostream"* @_ZNSo3putEc(%"class.std::basic_ostream"* nonnull align 8 dereferenceable(8) %67, i8 signext %95)
  br label %129

97:                                               ; preds = %64
  %98 = call nonnull align 8 dereferenceable(8) %"class.std::basic_ostream"* @_ZSt16__ostream_insertIcSt11char_traitsIcEERSt13basic_ostreamIT_T0_ES6_PKS3_l(%"class.std::basic_ostream"* nonnull align 8 dereferenceable(8) %67, i8* nonnull getelementptr inbounds ([2 x i8], [2 x i8]* @.str, i64 0, i64 0), i64 1)
  %99 = fpext float %11 to double
  %100 = call nonnull align 8 dereferenceable(8) %"class.std::basic_ostream"* @_ZNSo9_M_insertIdEERSoT_(%"class.std::basic_ostream"* nonnull align 8 dereferenceable(8) %67, double %99)
  %101 = bitcast %"class.std::basic_ostream"* %100 to i8**
  %102 = load i8*, i8** %101, align 8, !tbaa !13
  %103 = getelementptr i8, i8* %102, i64 -24
  %104 = bitcast i8* %103 to i64*
  %105 = load i64, i64* %104, align 8
  %106 = bitcast %"class.std::basic_ostream"* %100 to i8*
  %107 = add nsw i64 %105, 240
  %108 = getelementptr inbounds i8, i8* %106, i64 %107
  %109 = bitcast i8* %108 to %"class.std::ctype"**
  %110 = load %"class.std::ctype"*, %"class.std::ctype"** %109, align 8, !tbaa !15
  %111 = icmp eq %"class.std::ctype"* %110, null
  br i1 %111, label %112, label %113

112:                                              ; preds = %97
  call void @_ZSt16__throw_bad_castv() #8
  unreachable

113:                                              ; preds = %97
  %114 = getelementptr inbounds %"class.std::ctype", %"class.std::ctype"* %110, i64 0, i32 8
  %115 = load i8, i8* %114, align 8, !tbaa !19
  %116 = icmp eq i8 %115, 0
  br i1 %116, label %120, label %117

117:                                              ; preds = %113
  %118 = getelementptr inbounds %"class.std::ctype", %"class.std::ctype"* %110, i64 0, i32 9, i64 10
  %119 = load i8, i8* %118, align 1, !tbaa !21
  br label %126

120:                                              ; preds = %113
  call void @_ZNKSt5ctypeIcE13_M_widen_initEv(%"class.std::ctype"* nonnull align 8 dereferenceable(570) %110)
  %121 = bitcast %"class.std::ctype"* %110 to i8 (%"class.std::ctype"*, i8)***
  %122 = load i8 (%"class.std::ctype"*, i8)**, i8 (%"class.std::ctype"*, i8)*** %121, align 8, !tbaa !13
  %123 = getelementptr inbounds i8 (%"class.std::ctype"*, i8)*, i8 (%"class.std::ctype"*, i8)** %122, i64 6
  %124 = load i8 (%"class.std::ctype"*, i8)*, i8 (%"class.std::ctype"*, i8)** %123, align 8
  %125 = call signext i8 %124(%"class.std::ctype"* nonnull align 8 dereferenceable(570) %110, i8 signext 10)
  br label %126

126:                                              ; preds = %117, %120
  %127 = phi i8 [ %119, %117 ], [ %125, %120 ]
  %128 = call nonnull align 8 dereferenceable(8) %"class.std::basic_ostream"* @_ZNSo3putEc(%"class.std::basic_ostream"* nonnull align 8 dereferenceable(8) %100, i8 signext %127)
  br label %129

129:                                              ; preds = %94, %126, %61
  %130 = phi %"class.std::basic_ostream"* [ %96, %94 ], [ %128, %126 ], [ %63, %61 ]
  %131 = call nonnull align 8 dereferenceable(8) %"class.std::basic_ostream"* @_ZNSo5flushEv(%"class.std::basic_ostream"* nonnull align 8 dereferenceable(8) %130)
  call void @llvm.lifetime.end.p0i8(i64 4, i8* nonnull %4) #7
  call void @llvm.lifetime.end.p0i8(i64 4, i8* nonnull %3) #7
  ret i32 0
}

; Function Attrs: argmemonly mustprogress nofree nosync nounwind willreturn
declare void @llvm.lifetime.start.p0i8(i64 immarg, i8* nocapture) #4

declare nonnull align 8 dereferenceable(16) %"class.std::basic_istream"* @_ZNSirsERi(%"class.std::basic_istream"* nonnull align 8 dereferenceable(16), i32* nonnull align 4 dereferenceable(4)) local_unnamed_addr #0

; Function Attrs: argmemonly mustprogress nofree nosync nounwind willreturn
declare void @llvm.lifetime.end.p0i8(i64 immarg, i8* nocapture) #4

declare nonnull align 8 dereferenceable(16) %"class.std::basic_istream"* @_ZNSi10_M_extractIfEERSiRT_(%"class.std::basic_istream"* nonnull align 8 dereferenceable(16), float* nonnull align 4 dereferenceable(4)) local_unnamed_addr #0

declare nonnull align 8 dereferenceable(8) %"class.std::basic_ostream"* @_ZNSo9_M_insertIdEERSoT_(%"class.std::basic_ostream"* nonnull align 8 dereferenceable(8), double) local_unnamed_addr #0

declare nonnull align 8 dereferenceable(8) %"class.std::basic_ostream"* @_ZNSo3putEc(%"class.std::basic_ostream"* nonnull align 8 dereferenceable(8), i8 signext) local_unnamed_addr #0

declare nonnull align 8 dereferenceable(8) %"class.std::basic_ostream"* @_ZNSo5flushEv(%"class.std::basic_ostream"* nonnull align 8 dereferenceable(8)) local_unnamed_addr #0

; Function Attrs: noreturn
declare void @_ZSt16__throw_bad_castv() local_unnamed_addr #5

declare void @_ZNKSt5ctypeIcE13_M_widen_initEv(%"class.std::ctype"* nonnull align 8 dereferenceable(570)) local_unnamed_addr #0

declare nonnull align 8 dereferenceable(8) %"class.std::basic_ostream"* @_ZSt16__ostream_insertIcSt11char_traitsIcEERSt13basic_ostreamIT_T0_ES6_PKS3_l(%"class.std::basic_ostream"* nonnull align 8 dereferenceable(8), i8*, i64) local_unnamed_addr #0

; Function Attrs: sspstrong uwtable
define internal void @_GLOBAL__sub_I_1229.cpp() #6 section ".text.startup" {
  tail call void @_ZNSt8ios_base4InitC1Ev(%"class.std::ios_base::Init"* nonnull align 1 dereferenceable(1) @_ZStL8__ioinit)
  %1 = tail call i32 @__cxa_atexit(void (i8*)* bitcast (void (%"class.std::ios_base::Init"*)* @_ZNSt8ios_base4InitD1Ev to void (i8*)*), i8* getelementptr inbounds (%"class.std::ios_base::Init", %"class.std::ios_base::Init"* @_ZStL8__ioinit, i64 0, i32 0), i8* nonnull @__dso_handle) #7
  ret void
}


!llvm.module.flags = !{!0, !1, !2, !3}
!llvm.ident = !{!4}

!0 = !{i32 1, !"wchar_size", i32 4}
!1 = !{i32 7, !"PIC Level", i32 2}
!2 = !{i32 7, !"PIE Level", i32 2}
!3 = !{i32 7, !"uwtable", i32 1}
!4 = !{!"clang version 13.0.0"}
!5 = !{!6, !6, i64 0}
!6 = !{!"int", !7, i64 0}
!7 = !{!"omnipotent char", !8, i64 0}
!8 = !{!"Simple C++ TBAA"}
!9 = !{!10, !10, i64 0}
!10 = !{!"float", !7, i64 0}
!11 = distinct !{!11, !12}
!12 = !{!"llvm.loop.mustprogress"}
!13 = !{!14, !14, i64 0}
!14 = !{!"vtable pointer", !8, i64 0}
!15 = !{!16, !17, i64 240}
!16 = !{!"_ZTSSt9basic_iosIcSt11char_traitsIcEE", !17, i64 216, !7, i64 224, !18, i64 225, !17, i64 232, !17, i64 240, !17, i64 248, !17, i64 256}
!17 = !{!"any pointer", !7, i64 0}
!18 = !{!"bool", !7, i64 0}
!19 = !{!20, !7, i64 56}
!20 = !{!"_ZTSSt5ctypeIcE", !17, i64 16, !18, i64 24, !17, i64 32, !17, i64 40, !17, i64 48, !7, i64 56, !7, i64 57, !7, i64 313, !7, i64 569}
!21 = !{!7, !7, i64 0}
